target datalayout = "e-m:e-p270:32:32-p271:32:32-p272:64:64-i64:64-i128:128-f80:128-n8:16:32:64-S128"
target triple = "x86_64-pc-linux-gnu"

; Function Attrs: nounwind uwtable
define internal i32 @convert_raw_to_der_single_int(ptr noundef %0, i64 noundef %1, ptr noundef %2, ptr noundef %3) #0 {
  %5 = alloca i32, align 4
  %6 = alloca ptr, align 8
  %7 = alloca i64, align 8
  %8 = alloca ptr, align 8
  %9 = alloca ptr, align 8
  %10 = alloca ptr, align 8
  %11 = alloca i32, align 4
  %12 = alloca i32, align 4
  %13 = alloca i32, align 4
  store ptr %0, ptr %6, align 8, !tbaa !20
  store i64 %1, ptr %7, align 8, !tbaa !9
  store ptr %2, ptr %8, align 8, !tbaa !20
  store ptr %3, ptr %9, align 8, !tbaa !20
  call void @llvm.lifetime.start.p0(i64 8, ptr %10) #5
  %14 = load ptr, ptr %9, align 8, !tbaa !20
  store ptr %14, ptr %10, align 8, !tbaa !20
  call void @llvm.lifetime.start.p0(i64 4, ptr %11) #5
  call void @llvm.lifetime.start.p0(i64 4, ptr %12) #5
  store i32 -110, ptr %12, align 4, !tbaa !3
  br label %15

15:                                               ; preds = %28, %4
  %16 = load ptr, ptr %6, align 8, !tbaa !20
  %17 = load i8, ptr %16, align 1, !tbaa !19
  %18 = zext i8 %17 to i32
  %19 = icmp eq i32 %18, 0
  br i1 %19, label %20, label %29

20:                                               ; preds = %15
  %21 = load ptr, ptr %6, align 8, !tbaa !20
  %22 = getelementptr inbounds nuw i8, ptr %21, i32 1
  store ptr %22, ptr %6, align 8, !tbaa !20
  %23 = load i64, ptr %7, align 8, !tbaa !9
  %24 = add i64 %23, -1
  store i64 %24, ptr %7, align 8, !tbaa !9
  %25 = load i64, ptr %7, align 8, !tbaa !9
  %26 = icmp eq i64 %25, 0
  br i1 %26, label %27, label %28

27:                                               ; preds = %20
  store i32 -104, ptr %5, align 4
  store i32 1, ptr %13, align 4
  br label %100

28:                                               ; preds = %20
  br label %15, !llvm.loop !22

29:                                               ; preds = %15
  %30 = load i64, ptr %7, align 8, !tbaa !9
  %31 = trunc i64 %30 to i32
  store i32 %31, ptr %11, align 4, !tbaa !3
  %32 = load ptr, ptr %10, align 8, !tbaa !20
  %33 = load ptr, ptr %8, align 8, !tbaa !20
  %34 = ptrtoint ptr %32 to i64
  %35 = ptrtoint ptr %33 to i64
  %36 = sub i64 %34, %35
  %37 = load i32, ptr %11, align 4, !tbaa !3
  %38 = sext i32 %37 to i64
  %39 = icmp slt i64 %36, %38
  br i1 %39, label %40, label %41

40:                                               ; preds = %29
  store i32 -108, ptr %5, align 4
  store i32 1, ptr %13, align 4
  br label %100

41:                                               ; preds = %29
  %42 = load i32, ptr %11, align 4, !tbaa !3
  %43 = load ptr, ptr %10, align 8, !tbaa !20
  %44 = sext i32 %42 to i64
  %45 = sub i64 0, %44
  %46 = getelementptr inbounds i8, ptr %43, i64 %45
  store ptr %46, ptr %10, align 8, !tbaa !20
  %47 = load ptr, ptr %10, align 8, !tbaa !20
  %48 = load ptr, ptr %6, align 8, !tbaa !20
  %49 = load i32, ptr %11, align 4, !tbaa !3
  %50 = sext i32 %49 to i64
  call void @llvm.memcpy.p0.p0.i64(ptr align 1 %47, ptr align 1 %48, i64 %50, i1 false)
  %51 = load ptr, ptr %10, align 8, !tbaa !20
  %52 = load i8, ptr %51, align 1, !tbaa !19
  %53 = zext i8 %52 to i32
  %54 = and i32 %53, 128
  %55 = icmp ne i32 %54, 0
  br i1 %55, label %56, label %70

56:                                               ; preds = %41
  %57 = load ptr, ptr %10, align 8, !tbaa !20
  %58 = load ptr, ptr %8, align 8, !tbaa !20
  %59 = ptrtoint ptr %57 to i64
  %60 = ptrtoint ptr %58 to i64
  %61 = sub i64 %59, %60
  %62 = icmp slt i64 %61, 1
  br i1 %62, label %63, label %64

63:                                               ; preds = %56
  store i32 -108, ptr %5, align 4
  store i32 1, ptr %13, align 4
  br label %100

64:                                               ; preds = %56
  %65 = load ptr, ptr %10, align 8, !tbaa !20
  %66 = getelementptr inbounds i8, ptr %65, i32 -1
  store ptr %66, ptr %10, align 8, !tbaa !20
  %67 = load ptr, ptr %10, align 8, !tbaa !20
  store i8 0, ptr %67, align 1, !tbaa !19
  %68 = load i32, ptr %11, align 4, !tbaa !3
  %69 = add nsw i32 %68, 1
  store i32 %69, ptr %11, align 4, !tbaa !3
  br label %70

70:                                               ; preds = %64, %41
  br label %71

71:                                               ; preds = %70
  %72 = load ptr, ptr %8, align 8, !tbaa !20
  %73 = load i32, ptr %11, align 4, !tbaa !3
  %74 = sext i32 %73 to i64
  %75 = call i32 @mbedtls_asn1_write_len(ptr noundef %10, ptr noundef %72, i64 noundef %74)
  store i32 %75, ptr %12, align 4, !tbaa !3
  %76 = icmp slt i32 %75, 0
  br i1 %76, label %77, label %79

77:                                               ; preds = %71
  %78 = load i32, ptr %12, align 4, !tbaa !3
  store i32 %78, ptr %5, align 4
  store i32 1, ptr %13, align 4
  br label %100

79:                                               ; preds = %71
  %80 = load i32, ptr %12, align 4, !tbaa !3
  %81 = load i32, ptr %11, align 4, !tbaa !3
  %82 = add nsw i32 %81, %80
  store i32 %82, ptr %11, align 4, !tbaa !3
  br label %83

83:                                               ; preds = %79
  br label %84

84:                                               ; preds = %83
  br label %85

85:                                               ; preds = %84
  br label %86

86:                                               ; preds = %85
  %87 = load ptr, ptr %8, align 8, !tbaa !20
  %88 = call i32 @mbedtls_asn1_write_tag(ptr noundef %10, ptr noundef %87, i8 noundef zeroext 2)
  store i32 %88, ptr %12, align 4, !tbaa !3
  %89 = icmp slt i32 %88, 0
  br i1 %89, label %90, label %92

90:                                               ; preds = %86
  %91 = load i32, ptr %12, align 4, !tbaa !3
  store i32 %91, ptr %5, align 4
  store i32 1, ptr %13, align 4
  br label %100

92:                                               ; preds = %86
  %93 = load i32, ptr %12, align 4, !tbaa !3
  %94 = load i32, ptr %11, align 4, !tbaa !3
  %95 = add nsw i32 %94, %93
  store i32 %95, ptr %11, align 4, !tbaa !3
  br label %96

96:                                               ; preds = %92
  br label %97

97:                                               ; preds = %96
  br label %98

98:                                               ; preds = %97
  %99 = load i32, ptr %11, align 4, !tbaa !3
  store i32 %99, ptr %5, align 4
  store i32 1, ptr %13, align 4
  br label %100

100:                                              ; preds = %98, %90, %77, %63, %40, %27
  call void @llvm.lifetime.end.p0(i64 4, ptr %12) #5
  call void @llvm.lifetime.end.p0(i64 4, ptr %11) #5
  call void @llvm.lifetime.end.p0(i64 8, ptr %10) #5
  %101 = load i32, ptr %5, align 4
  ret i32 %101
}

; Function Attrs: nounwind uwtable
define hidden i32 @mbedtls_ecdsa_raw_to_der(i64 noundef %0, ptr noundef %1, i64 noundef %2, ptr noundef %3, i64 noundef %4, ptr noundef %5) #0 {
  %7 = alloca i32, align 4
  %8 = alloca i64, align 8
  %9 = alloca ptr, align 8
  %10 = alloca i64, align 8
  %11 = alloca ptr, align 8
  %12 = alloca i64, align 8
  %13 = alloca ptr, align 8
  %14 = alloca [66 x i8], align 16
  %15 = alloca [66 x i8], align 16
  %16 = alloca i64, align 8
  %17 = alloca i64, align 8
  %18 = alloca ptr, align 8
  %19 = alloca i32, align 4
  %20 = alloca i32, align 4
  store i64 %0, ptr %8, align 8, !tbaa !9
  store ptr %1, ptr %9, align 8, !tbaa !20
  store i64 %2, ptr %10, align 8, !tbaa !9
  store ptr %3, ptr %11, align 8, !tbaa !20
  store i64 %4, ptr %12, align 8, !tbaa !9
  store ptr %5, ptr %13, align 8, !tbaa !17
  call void @llvm.lifetime.start.p0(i64 66, ptr %14) #5
  call void @llvm.lifetime.start.p0(i64 66, ptr %15) #5
  call void @llvm.lifetime.start.p0(i64 8, ptr %16) #5
  %21 = load i64, ptr %8, align 8, !tbaa !9
  %22 = add i64 %21, 7
  %23 = udiv i64 %22, 8
  store i64 %23, ptr %16, align 8, !tbaa !9
  call void @llvm.lifetime.start.p0(i64 8, ptr %17) #5
  store i64 0, ptr %17, align 8, !tbaa !9
  call void @llvm.lifetime.start.p0(i64 8, ptr %18) #5
  %24 = load ptr, ptr %11, align 8, !tbaa !20
  %25 = load i64, ptr %12, align 8, !tbaa !9
  %26 = getelementptr inbounds nuw i8, ptr %24, i64 %25
  store ptr %26, ptr %18, align 8, !tbaa !20
  call void @llvm.lifetime.start.p0(i64 4, ptr %19) #5
  store i32 -110, ptr %19, align 4, !tbaa !3
  %27 = load i64, ptr %10, align 8, !tbaa !9
  %28 = load i64, ptr %16, align 8, !tbaa !9
  %29 = mul i64 2, %28
  %30 = icmp ne i64 %27, %29
  br i1 %30, label %31, label %32

31:                                               ; preds = %6
  store i32 -104, ptr %7, align 4
  store i32 1, ptr %20, align 4
  br label %117

32:                                               ; preds = %6
  %33 = load i64, ptr %16, align 8, !tbaa !9
  %34 = icmp ugt i64 %33, 66
  br i1 %34, label %35, label %36

35:                                               ; preds = %32
  store i32 -108, ptr %7, align 4
  store i32 1, ptr %20, align 4
  br label %117

36:                                               ; preds = %32
  %37 = getelementptr inbounds [66 x i8], ptr %14, i64 0, i64 0
  %38 = load ptr, ptr %9, align 8, !tbaa !20
  %39 = load i64, ptr %16, align 8, !tbaa !9
  call void @llvm.memcpy.p0.p0.i64(ptr align 16 %37, ptr align 1 %38, i64 %39, i1 false)
  %40 = getelementptr inbounds [66 x i8], ptr %15, i64 0, i64 0
  %41 = load ptr, ptr %9, align 8, !tbaa !20
  %42 = load i64, ptr %16, align 8, !tbaa !9
  %43 = getelementptr inbounds nuw i8, ptr %41, i64 %42
  %44 = load i64, ptr %16, align 8, !tbaa !9
  call void @llvm.memcpy.p0.p0.i64(ptr align 16 %40, ptr align 1 %43, i64 %44, i1 false)
  %45 = getelementptr inbounds [66 x i8], ptr %15, i64 0, i64 0
  %46 = load i64, ptr %16, align 8, !tbaa !9
  %47 = load ptr, ptr %11, align 8, !tbaa !20
  %48 = load ptr, ptr %18, align 8, !tbaa !20
  %49 = call i32 @convert_raw_to_der_single_int(ptr noundef %45, i64 noundef %46, ptr noundef %47, ptr noundef %48)
  store i32 %49, ptr %19, align 4, !tbaa !3
  %50 = load i32, ptr %19, align 4, !tbaa !3
  %51 = icmp slt i32 %50, 0
  br i1 %51, label %52, label %54

52:                                               ; preds = %36
  %53 = load i32, ptr %19, align 4, !tbaa !3
  store i32 %53, ptr %7, align 4
  store i32 1, ptr %20, align 4
  br label %117

54:                                               ; preds = %36
  %55 = load i32, ptr %19, align 4, !tbaa !3
  %56 = load ptr, ptr %18, align 8, !tbaa !20
  %57 = sext i32 %55 to i64
  %58 = sub i64 0, %57
  %59 = getelementptr inbounds i8, ptr %56, i64 %58
  store ptr %59, ptr %18, align 8, !tbaa !20
  %60 = load i32, ptr %19, align 4, !tbaa !3
  %61 = sext i32 %60 to i64
  %62 = load i64, ptr %17, align 8, !tbaa !9
  %63 = add i64 %62, %61
  store i64 %63, ptr %17, align 8, !tbaa !9
  %64 = getelementptr inbounds [66 x i8], ptr %14, i64 0, i64 0
  %65 = load i64, ptr %16, align 8, !tbaa !9
  %66 = load ptr, ptr %11, align 8, !tbaa !20
  %67 = load ptr, ptr %18, align 8, !tbaa !20
  %68 = call i32 @convert_raw_to_der_single_int(ptr noundef %64, i64 noundef %65, ptr noundef %66, ptr noundef %67)
  store i32 %68, ptr %19, align 4, !tbaa !3
  %69 = load i32, ptr %19, align 4, !tbaa !3
  %70 = icmp slt i32 %69, 0
  br i1 %70, label %71, label %73

71:                                               ; preds = %54
  %72 = load i32, ptr %19, align 4, !tbaa !3
  store i32 %72, ptr %7, align 4
  store i32 1, ptr %20, align 4
  br label %117

73:                                               ; preds = %54
  %74 = load i32, ptr %19, align 4, !tbaa !3
  %75 = load ptr, ptr %18, align 8, !tbaa !20
  %76 = sext i32 %74 to i64
  %77 = sub i64 0, %76
  %78 = getelementptr inbounds i8, ptr %75, i64 %77
  store ptr %78, ptr %18, align 8, !tbaa !20
  %79 = load i32, ptr %19, align 4, !tbaa !3
  %80 = sext i32 %79 to i64
  %81 = load i64, ptr %17, align 8, !tbaa !9
  %82 = add i64 %81, %80
  store i64 %82, ptr %17, align 8, !tbaa !9
  br label %83

83:                                               ; preds = %73
  %84 = load ptr, ptr %11, align 8, !tbaa !20
  %85 = load i64, ptr %17, align 8, !tbaa !9
  %86 = call i32 @mbedtls_asn1_write_len(ptr noundef %18, ptr noundef %84, i64 noundef %85)
  store i32 %86, ptr %19, align 4, !tbaa !3
  %87 = icmp slt i32 %86, 0
  br i1 %87, label %88, label %90

88:                                               ; preds = %83
  %89 = load i32, ptr %19, align 4, !tbaa !3
  store i32 %89, ptr %7, align 4
  store i32 1, ptr %20, align 4
  br label %117

90:                                               ; preds = %83
  %91 = load i32, ptr %19, align 4, !tbaa !3
  %92 = sext i32 %91 to i64
  %93 = load i64, ptr %17, align 8, !tbaa !9
  %94 = add i64 %93, %92
  store i64 %94, ptr %17, align 8, !tbaa !9
  br label %95

95:                                               ; preds = %90
  br label %96

96:                                               ; preds = %95
  br label %97

97:                                               ; preds = %96
  br label %98

98:                                               ; preds = %97
  %99 = load ptr, ptr %11, align 8, !tbaa !20
  %100 = call i32 @mbedtls_asn1_write_tag(ptr noundef %18, ptr noundef %99, i8 noundef zeroext 48)
  store i32 %100, ptr %19, align 4, !tbaa !3
  %101 = icmp slt i32 %100, 0
  br i1 %101, label %102, label %104

102:                                              ; preds = %98
  %103 = load i32, ptr %19, align 4, !tbaa !3
  store i32 %103, ptr %7, align 4
  store i32 1, ptr %20, align 4
  br label %117

104:                                              ; preds = %98
  %105 = load i32, ptr %19, align 4, !tbaa !3
  %106 = sext i32 %105 to i64
  %107 = load i64, ptr %17, align 8, !tbaa !9
  %108 = add i64 %107, %106
  store i64 %108, ptr %17, align 8, !tbaa !9
  br label %109

109:                                              ; preds = %104
  br label %110

110:                                              ; preds = %109
  br label %111

111:                                              ; preds = %110
  %112 = load ptr, ptr %11, align 8, !tbaa !20
  %113 = load ptr, ptr %18, align 8, !tbaa !20
  %114 = load i64, ptr %17, align 8, !tbaa !9
  call void @llvm.memmove.p0.p0.i64(ptr align 1 %112, ptr align 1 %113, i64 %114, i1 false)
  %115 = load i64, ptr %17, align 8, !tbaa !9
  %116 = load ptr, ptr %13, align 8, !tbaa !17
  store i64 %115, ptr %116, align 8, !tbaa !9
  store i32 0, ptr %7, align 4
  store i32 1, ptr %20, align 4
  br label %117

117:                                              ; preds = %111, %102, %88, %71, %52, %35, %31
  call void @llvm.lifetime.end.p0(i64 4, ptr %19) #5
  call void @llvm.lifetime.end.p0(i64 8, ptr %18) #5
  call void @llvm.lifetime.end.p0(i64 8, ptr %17) #5
  call void @llvm.lifetime.end.p0(i64 8, ptr %16) #5
  call void @llvm.lifetime.end.p0(i64 66, ptr %15) #5
  call void @llvm.lifetime.end.p0(i64 66, ptr %14) #5
  %118 = load i32, ptr %7, align 4
  ret i32 %118
}