; Function Attrs: nounwind uwtable
define hidden range(i32 -2147483648, 1) i32 @mbedtls_ecdsa_raw_to_der(i64 noundef %0, ptr noundef readonly captures(none) %1, i64 noundef %2, ptr noundef %3, i64 noundef %4, ptr noundef writeonly captures(none) %5) local_unnamed_addr #1 {
  %7 = alloca ptr, align 8
  %8 = alloca ptr, align 8
  %9 = alloca [66 x i8], align 16
  %10 = alloca [66 x i8], align 16
  %11 = alloca ptr, align 8
  call void @llvm.lifetime.start.p0(i64 66, ptr nonnull %9) #7
  call void @llvm.lifetime.start.p0(i64 66, ptr nonnull %10) #7
  %12 = add i64 %0, 7
  %13 = lshr i64 %12, 3
  call void @llvm.lifetime.start.p0(i64 8, ptr nonnull %11) #7
  %14 = getelementptr inbounds nuw i8, ptr %3, i64 %4
  %15 = shl nuw nsw i64 %13, 1
  %.not = icmp eq i64 %2, %15
  br i1 %.not, label %16, label %107

16:                                               ; preds = %6
  %17 = icmp ugt i64 %12, 535
  br i1 %17, label %107, label %18

18:                                               ; preds = %16
  call void @llvm.memcpy.p0.p0.i64(ptr nonnull align 16 %9, ptr align 1 %1, i64 %13, i1 false)
  %19 = getelementptr inbounds nuw i8, ptr %1, i64 %13
  call void @llvm.memcpy.p0.p0.i64(ptr nonnull align 16 %10, ptr align 1 %19, i64 %13, i1 false)
  call void @llvm.lifetime.start.p0(i64 8, ptr nonnull %8) #7
  br label %20

20:                                               ; preds = %23, %18
  %.025.i = phi i64 [ %13, %18 ], [ %25, %23 ]
  %.024.i = phi ptr [ %10, %18 ], [ %24, %23 ]
  %21 = load i8, ptr %.024.i, align 1, !tbaa !13
  %22 = icmp eq i8 %21, 0
  br i1 %22, label %23, label %27

23:                                               ; preds = %20
  %24 = getelementptr inbounds nuw i8, ptr %.024.i, i64 1
  %25 = add i64 %.025.i, -1
  %26 = icmp eq i64 %25, 0
  br i1 %26, label %convert_raw_to_der_single_int.exit.thread, label %20, !llvm.loop !14

27:                                               ; preds = %20
  %28 = trunc i64 %.025.i to i32
  %29 = ptrtoint ptr %3 to i64
  %sext.i = shl i64 %.025.i, 32
  %30 = ashr exact i64 %sext.i, 32
  %31 = icmp slt i64 %4, %30
  br i1 %31, label %convert_raw_to_der_single_int.exit.thread, label %32

32:                                               ; preds = %27
  %33 = sub nsw i64 0, %30
  %34 = getelementptr inbounds i8, ptr %14, i64 %33
  store ptr %34, ptr %8, align 8, !tbaa !15
  call void @llvm.memcpy.p0.p0.i64(ptr align 1 %34, ptr nonnull align 1 %.024.i, i64 %30, i1 false)
  %35 = load i8, ptr %34, align 1, !tbaa !13
  %.not.i = icmp sgt i8 %35, -1
  br i1 %.not.i, label %43, label %36

36:                                               ; preds = %32
  %37 = ptrtoint ptr %34 to i64
  %38 = sub i64 %37, %29
  %39 = icmp slt i64 %38, 1
  br i1 %39, label %convert_raw_to_der_single_int.exit.thread, label %40

40:                                               ; preds = %36
  %41 = getelementptr inbounds i8, ptr %34, i64 -1
  store ptr %41, ptr %8, align 8, !tbaa !15
  store i8 0, ptr %41, align 1, !tbaa !13
  %42 = add nsw i32 %28, 1
  br label %43

43:                                               ; preds = %40, %32
  %.0.i = phi i32 [ %42, %40 ], [ %28, %32 ]
  %44 = sext i32 %.0.i to i64
  %45 = call i32 @mbedtls_asn1_write_len(ptr noundef nonnull %8, ptr noundef nonnull %3, i64 noundef %44) #7
  %46 = icmp slt i32 %45, 0
  br i1 %46, label %convert_raw_to_der_single_int.exit.thread, label %47

47:                                               ; preds = %43
  %48 = call i32 @mbedtls_asn1_write_tag(ptr noundef nonnull %8, ptr noundef nonnull %3, i8 noundef zeroext 2) #7
  %49 = icmp slt i32 %48, 0
  br i1 %49, label %convert_raw_to_der_single_int.exit.thread, label %convert_raw_to_der_single_int.exit

convert_raw_to_der_single_int.exit.thread:        ; preds = %23, %27, %36, %43, %47
  %.023.i.ph = phi i32 [ %48, %47 ], [ %45, %43 ], [ -108, %36 ], [ -108, %27 ], [ -104, %23 ]
  call void @llvm.lifetime.end.p0(i64 8, ptr nonnull %8) #7
  br label %107

convert_raw_to_der_single_int.exit:               ; preds = %47
  %50 = add nsw i32 %45, %.0.i
  %51 = add nsw i32 %50, %48
  call void @llvm.lifetime.end.p0(i64 8, ptr nonnull %8) #7
  %52 = icmp slt i32 %51, 0
  br i1 %52, label %107, label %53

53:                                               ; preds = %convert_raw_to_der_single_int.exit
  %54 = zext nneg i32 %51 to i64
  %55 = sub nsw i64 0, %54
  %56 = getelementptr inbounds i8, ptr %14, i64 %55
  call void @llvm.lifetime.start.p0(i64 8, ptr nonnull %7) #7
  br label %57

57:                                               ; preds = %60, %53
  %.025.i46 = phi i64 [ %13, %53 ], [ %62, %60 ]
  %.024.i47 = phi ptr [ %9, %53 ], [ %61, %60 ]
  %58 = load i8, ptr %.024.i47, align 1, !tbaa !13
  %59 = icmp eq i8 %58, 0
  br i1 %59, label %60, label %64

60:                                               ; preds = %57
  %61 = getelementptr inbounds nuw i8, ptr %.024.i47, i64 1
  %62 = add i64 %.025.i46, -1
  %63 = icmp eq i64 %62, 0
  br i1 %63, label %convert_raw_to_der_single_int.exit52.thread, label %57, !llvm.loop !14

64:                                               ; preds = %57
  %65 = trunc i64 %.025.i46 to i32
  %66 = ptrtoint ptr %56 to i64
  %67 = sub i64 %66, %29
  %sext.i48 = shl i64 %.025.i46, 32
  %68 = ashr exact i64 %sext.i48, 32
  %69 = icmp slt i64 %67, %68
  br i1 %69, label %convert_raw_to_der_single_int.exit52.thread, label %70

70:                                               ; preds = %64
  %71 = sub nsw i64 0, %68
  %72 = getelementptr inbounds i8, ptr %56, i64 %71
  store ptr %72, ptr %7, align 8, !tbaa !15
  call void @llvm.memcpy.p0.p0.i64(ptr nonnull align 1 %72, ptr nonnull align 1 %.024.i47, i64 %68, i1 false)
  %73 = load i8, ptr %72, align 1, !tbaa !13
  %.not.i49 = icmp sgt i8 %73, -1
  br i1 %.not.i49, label %81, label %74

74:                                               ; preds = %70
  %75 = ptrtoint ptr %72 to i64
  %76 = sub i64 %75, %29
  %77 = icmp slt i64 %76, 1
  br i1 %77, label %convert_raw_to_der_single_int.exit52.thread, label %78

78:                                               ; preds = %74
  %79 = getelementptr inbounds i8, ptr %72, i64 -1
  store ptr %79, ptr %7, align 8, !tbaa !15
  store i8 0, ptr %79, align 1, !tbaa !13
  %80 = add nsw i32 %65, 1
  br label %81

81:                                               ; preds = %78, %70
  %.0.i50 = phi i32 [ %80, %78 ], [ %65, %70 ]
  %82 = sext i32 %.0.i50 to i64
  %83 = call i32 @mbedtls_asn1_write_len(ptr noundef nonnull %7, ptr noundef nonnull %3, i64 noundef %82) #7
  %84 = icmp slt i32 %83, 0
  br i1 %84, label %convert_raw_to_der_single_int.exit52.thread, label %85

85:                                               ; preds = %81
  %86 = call i32 @mbedtls_asn1_write_tag(ptr noundef nonnull %7, ptr noundef nonnull %3, i8 noundef zeroext 2) #7
  %87 = icmp slt i32 %86, 0
  br i1 %87, label %convert_raw_to_der_single_int.exit52.thread, label %convert_raw_to_der_single_int.exit52

convert_raw_to_der_single_int.exit52.thread:      ; preds = %60, %64, %74, %81, %85
  %.023.i51.ph = phi i32 [ %86, %85 ], [ %83, %81 ], [ -108, %74 ], [ -108, %64 ], [ -104, %60 ]
  call void @llvm.lifetime.end.p0(i64 8, ptr nonnull %7) #7
  br label %107

convert_raw_to_der_single_int.exit52:             ; preds = %85
  %88 = add nsw i32 %83, %.0.i50
  %89 = add nsw i32 %88, %86
  call void @llvm.lifetime.end.p0(i64 8, ptr nonnull %7) #7
  %90 = icmp slt i32 %89, 0
  br i1 %90, label %107, label %91

91:                                               ; preds = %convert_raw_to_der_single_int.exit52
  %92 = zext nneg i32 %89 to i64
  %93 = sub nsw i64 0, %92
  %94 = getelementptr inbounds i8, ptr %56, i64 %93
  store ptr %94, ptr %11, align 8, !tbaa !15
  %95 = add nuw nsw i64 %92, %54
  %96 = call i32 @mbedtls_asn1_write_len(ptr noundef nonnull %11, ptr noundef nonnull %3, i64 noundef %95) #7
  %97 = icmp slt i32 %96, 0
  br i1 %97, label %107, label %98

98:                                               ; preds = %91
  %99 = call i32 @mbedtls_asn1_write_tag(ptr noundef nonnull %11, ptr noundef nonnull %3, i8 noundef zeroext 48) #7
  %100 = icmp slt i32 %99, 0
  br i1 %100, label %107, label %101

101:                                              ; preds = %98
  %102 = zext nneg i32 %96 to i64
  %103 = add nuw nsw i64 %95, %102
  %104 = zext nneg i32 %99 to i64
  %105 = add nuw nsw i64 %103, %104
  %106 = load ptr, ptr %11, align 8, !tbaa !15
  call void @llvm.memmove.p0.p0.i64(ptr nonnull align 1 %3, ptr align 1 %106, i64 %105, i1 false)
  store i64 %105, ptr %5, align 8, !tbaa !11
  br label %107

107:                                              ; preds = %convert_raw_to_der_single_int.exit52.thread, %convert_raw_to_der_single_int.exit.thread, %98, %91, %convert_raw_to_der_single_int.exit52, %convert_raw_to_der_single_int.exit, %16, %6, %101
  %.0 = phi i32 [ 0, %101 ], [ -104, %6 ], [ -108, %16 ], [ %51, %convert_raw_to_der_single_int.exit ], [ %89, %convert_raw_to_der_single_int.exit52 ], [ %96, %91 ], [ %99, %98 ], [ %.023.i.ph, %convert_raw_to_der_single_int.exit.thread ], [ %.023.i51.ph, %convert_raw_to_der_single_int.exit52.thread ]
  call void @llvm.lifetime.end.p0(i64 8, ptr nonnull %11) #7
  call void @llvm.lifetime.end.p0(i64 66, ptr nonnull %10) #7
  call void @llvm.lifetime.end.p0(i64 66, ptr nonnull %9) #7
  ret i32 %.0
}